; Function Attrs: mustprogress uwtable
define void @_ZN22edit_referencingDialog37on_tableWidgetDist_currentCellChangedEiiii(ptr nocapture noundef nonnull readonly align 8 dereferenceable(72) %0, i32 noundef %1, i32 noundef %2, i32 noundef %3, i32 noundef %4) local_unnamed_addr #9 align 2 personality ptr @__gxx_personality_v0 {
  %6 = alloca %class.QString, align 8
  %7 = getelementptr inbounds i8, ptr %0, i64 64
  %8 = load ptr, ptr %7, align 8
  %9 = getelementptr inbounds i8, ptr %8, i64 688
  call void @llvm.lifetime.start.p0(i64 8, ptr nonnull %6)
  call void @_ZN7QString15fromUtf8_helperEPKci(ptr dead_on_unwind nonnull writable sret(%class.QString) align 8 %6, ptr noundef nonnull @.str.91, i32 noundef 0)
  %10 = load ptr, ptr %9, align 8
  %11 = load ptr, ptr %6, align 8
  store ptr %11, ptr %9, align 8
  store ptr %10, ptr %6, align 8
  %12 = load atomic i32, ptr %10 monotonic, align 4
  switch i32 %12, label %_ZN9QtPrivate8RefCount5derefEv.exit.i.i [
    i32 0, label %_ZN9QtPrivate8RefCount5derefEv.exit.thread2.i.i
    i32 -1, label %_ZN7QStringaSEPKc.exit
  ]

_ZN9QtPrivate8RefCount5derefEv.exit.i.i:          ; preds = %5
  %13 = atomicrmw sub ptr %10, i32 1 seq_cst, align 4
  %.not.i.i = icmp eq i32 %13, 1
  br i1 %.not.i.i, label %_ZN9QtPrivate8RefCount5derefEv.exit._ZN9QtPrivate8RefCount5derefEv.exit.thread2_crit_edge.i.i, label %_ZN7QStringaSEPKc.exit

_ZN9QtPrivate8RefCount5derefEv.exit._ZN9QtPrivate8RefCount5derefEv.exit.thread2_crit_edge.i.i: ; preds = %_ZN9QtPrivate8RefCount5derefEv.exit.i.i
  %.pre.i.i = load ptr, ptr %6, align 8
  br label %_ZN9QtPrivate8RefCount5derefEv.exit.thread2.i.i

_ZN9QtPrivate8RefCount5derefEv.exit.thread2.i.i:  ; preds = %_ZN9QtPrivate8RefCount5derefEv.exit._ZN9QtPrivate8RefCount5derefEv.exit.thread2_crit_edge.i.i, %5
  %14 = phi ptr [ %.pre.i.i, %_ZN9QtPrivate8RefCount5derefEv.exit._ZN9QtPrivate8RefCount5derefEv.exit.thread2_crit_edge.i.i ], [ %10, %5 ]
  call void @_ZN10QArrayData10deallocateEPS_mm(ptr noundef %14, i64 noundef 2, i64 noundef 8) #16
  br label %_ZN7QStringaSEPKc.exit

_ZN7QStringaSEPKc.exit:                           ; preds = %5, %_ZN9QtPrivate8RefCount5derefEv.exit.i.i, %_ZN9QtPrivate8RefCount5derefEv.exit.thread2.i.i
  call void @llvm.lifetime.end.p0(i64 8, ptr nonnull %6)
  %15 = load ptr, ptr %7, align 8
  %16 = getelementptr inbounds i8, ptr %15, i64 64
  %17 = load ptr, ptr %16, align 8
  call void @_ZN7QWidget6updateEv(ptr noundef nonnull align 8 dereferenceable(48) %17)
  ret void
}